; Function Attrs: null_pointer_is_valid sspstrong uwtable
define internal i32 @dissect_lpp_T_svHealthExt_v1240(ptr noundef %0, i32 noundef %1, ptr noundef %2, ptr noundef %3, i32 noundef %4) #0 {
  %6 = alloca ptr, align 8
  call void @llvm.lifetime.start.p0(i64 8, ptr nonnull %6) #10
  store ptr null, ptr %6, align 8
  %7 = call i32 @dissect_per_bit_string(ptr noundef %0, i32 noundef %1, ptr noundef %2, ptr noundef %3, i32 noundef %4, i32 noundef 4, i32 noundef 4, i1 noundef zeroext false, ptr noundef null, i32 noundef 0, ptr noundef nonnull %6, ptr noundef null)
  %8 = load ptr, ptr %6, align 8
  %.not = icmp eq ptr %8, null
  br i1 %.not, label %20, label %9

9:                                                ; preds = %5
  %10 = getelementptr inbounds nuw i8, ptr %2, i64 24
  %11 = load ptr, ptr %10, align 8
  %12 = load i32, ptr @ett_lpp_svHealthExt_v1240, align 4
  %13 = call ptr @proto_item_add_subtree(ptr noundef %11, i32 noundef %12)
  %14 = load i32, ptr @hf_lpp_svHealthExt_v1240_e5bhs, align 4
  %15 = load ptr, ptr %6, align 8
  %16 = call ptr @proto_tree_add_bits_item(ptr noundef %13, i32 noundef %14, ptr noundef %15, i32 noundef 0, i32 noundef 2, i32 noundef 0)
  %17 = load i32, ptr @hf_lpp_svHealthExt_v1240_e1_bhs, align 4
  %18 = load ptr, ptr %6, align 8
  %19 = call ptr @proto_tree_add_bits_item(ptr noundef %13, i32 noundef %17, ptr noundef %18, i32 noundef 2, i32 noundef 2, i32 noundef 0)
  br label %20

20:                                               ; preds = %9, %5
  call void @llvm.lifetime.end.p0(i64 8, ptr nonnull %6) #10
  ret i32 %7
}